target datalayout = "e-m:e-p270:32:32-p271:32:32-p272:64:64-i64:64-i128:128-f80:128-n8:16:32:64-S128"
target triple = "x86_64-pc-linux-gnu"

%struct.mbedtls_pk_rsassa_pss_options = type { i32, i32 }

@.str.9 = private unnamed_addr constant [3 x i8] c"%s\00", align 1
@.str.14 = private unnamed_addr constant [4 x i8] c"???\00", align 1
@.str.15 = private unnamed_addr constant [23 x i8] c" (%s, MGF1-%s, 0x%02X)\00", align 1
@.str.50 = private unnamed_addr constant [4 x i8] c"MD5\00", align 1
@.str.51 = private unnamed_addr constant [5 x i8] c"SHA1\00", align 1
@.str.52 = private unnamed_addr constant [7 x i8] c"SHA224\00", align 1
@.str.53 = private unnamed_addr constant [7 x i8] c"SHA256\00", align 1
@.str.54 = private unnamed_addr constant [7 x i8] c"SHA384\00", align 1
@.str.55 = private unnamed_addr constant [7 x i8] c"SHA512\00", align 1
@.str.56 = private unnamed_addr constant [10 x i8] c"RIPEMD160\00", align 1

; Function Attrs: inlinehint nounwind uwtable
define internal ptr @md_type_to_string(i32 noundef %0) #2 {
  %2 = alloca ptr, align 8
  %3 = alloca i32, align 4
  store i32 %0, ptr %3, align 4, !tbaa !13
  %4 = load i32, ptr %3, align 4, !tbaa !13
  switch i32 %4, label %13 [
    i32 3, label %5
    i32 5, label %6
    i32 8, label %7
    i32 9, label %8
    i32 10, label %9
    i32 11, label %10
    i32 4, label %11
    i32 0, label %12
  ]

5:                                                ; preds = %1
  store ptr @.str.50, ptr %2, align 8
  br label %14

6:                                                ; preds = %1
  store ptr @.str.51, ptr %2, align 8
  br label %14

7:                                                ; preds = %1
  store ptr @.str.52, ptr %2, align 8
  br label %14

8:                                                ; preds = %1
  store ptr @.str.53, ptr %2, align 8
  br label %14

9:                                                ; preds = %1
  store ptr @.str.54, ptr %2, align 8
  br label %14

10:                                               ; preds = %1
  store ptr @.str.55, ptr %2, align 8
  br label %14

11:                                               ; preds = %1
  store ptr @.str.56, ptr %2, align 8
  br label %14

12:                                               ; preds = %1
  store ptr null, ptr %2, align 8
  br label %14

13:                                               ; preds = %1
  store ptr null, ptr %2, align 8
  br label %14

14:                                               ; preds = %13, %12, %11, %10, %9, %8, %7, %6, %5
  %15 = load ptr, ptr %2, align 8
  ret ptr %15
}

; Function Attrs: nounwind uwtable
define hidden i32 @mbedtls_x509_sig_alg_gets(ptr noundef %0, i64 noundef %1, ptr noundef %2, i32 noundef %3, i32 noundef %4, ptr noundef %5) #0 {
  %7 = alloca i32, align 4
  %8 = alloca ptr, align 8
  %9 = alloca i64, align 8
  %10 = alloca ptr, align 8
  %11 = alloca i32, align 4
  %12 = alloca i32, align 4
  %13 = alloca ptr, align 8
  %14 = alloca i32, align 4
  %15 = alloca ptr, align 8
  %16 = alloca i64, align 8
  %17 = alloca ptr, align 8
  %18 = alloca i32, align 4
  %19 = alloca ptr, align 8
  %20 = alloca ptr, align 8
  %21 = alloca ptr, align 8
  store ptr %0, ptr %8, align 8, !tbaa !9
  store i64 %1, ptr %9, align 8, !tbaa !24
  store ptr %2, ptr %10, align 8, !tbaa !11
  store i32 %3, ptr %11, align 4, !tbaa !13
  store i32 %4, ptr %12, align 4, !tbaa !13
  store ptr %5, ptr %13, align 8, !tbaa !21
  call void @llvm.lifetime.start.p0(i64 4, ptr %14) #9
  store i32 -110, ptr %14, align 4, !tbaa !13
  call void @llvm.lifetime.start.p0(i64 8, ptr %15) #9
  %22 = load ptr, ptr %8, align 8, !tbaa !9
  store ptr %22, ptr %15, align 8, !tbaa !9
  call void @llvm.lifetime.start.p0(i64 8, ptr %16) #9
  %23 = load i64, ptr %9, align 8, !tbaa !24
  store i64 %23, ptr %16, align 8, !tbaa !24
  call void @llvm.lifetime.start.p0(i64 8, ptr %17) #9
  store ptr null, ptr %17, align 8, !tbaa !9
  %24 = load ptr, ptr %10, align 8, !tbaa !11
  %25 = call i32 @mbedtls_oid_get_sig_alg_desc(ptr noundef %24, ptr noundef %17)
  store i32 %25, ptr %14, align 4, !tbaa !13
  %26 = load i32, ptr %14, align 4, !tbaa !13
  %27 = icmp ne i32 %26, 0
  br i1 %27, label %28, label %32

28:                                               ; preds = %6
  %29 = load ptr, ptr %15, align 8, !tbaa !9
  %30 = load i64, ptr %16, align 8, !tbaa !24
  %31 = call i32 (ptr, i64, ptr, ...) @snprintf(ptr noundef %29, i64 noundef %30, ptr noundef @.str.14) #9
  store i32 %31, ptr %14, align 4, !tbaa !13
  br label %37

32:                                               ; preds = %6
  %33 = load ptr, ptr %15, align 8, !tbaa !9
  %34 = load i64, ptr %16, align 8, !tbaa !24
  %35 = load ptr, ptr %17, align 8, !tbaa !9
  %36 = call i32 (ptr, i64, ptr, ...) @snprintf(ptr noundef %33, i64 noundef %34, ptr noundef @.str.9, ptr noundef %35) #9
  store i32 %36, ptr %14, align 4, !tbaa !13
  br label %37

37:                                               ; preds = %32, %28
  br label %38

38:                                               ; preds = %37
  %39 = load i32, ptr %14, align 4, !tbaa !13
  %40 = icmp slt i32 %39, 0
  br i1 %40, label %46, label %41

41:                                               ; preds = %38
  %42 = load i32, ptr %14, align 4, !tbaa !13
  %43 = sext i32 %42 to i64
  %44 = load i64, ptr %16, align 8, !tbaa !24
  %45 = icmp uge i64 %43, %44
  br i1 %45, label %46, label %47

46:                                               ; preds = %41, %38
  store i32 -10624, ptr %7, align 4
  store i32 1, ptr %18, align 4
  br label %116

47:                                               ; preds = %41
  %48 = load i32, ptr %14, align 4, !tbaa !13
  %49 = sext i32 %48 to i64
  %50 = load i64, ptr %16, align 8, !tbaa !24
  %51 = sub i64 %50, %49
  store i64 %51, ptr %16, align 8, !tbaa !24
  %52 = load i32, ptr %14, align 4, !tbaa !13
  %53 = sext i32 %52 to i64
  %54 = load ptr, ptr %15, align 8, !tbaa !9
  %55 = getelementptr inbounds nuw i8, ptr %54, i64 %53
  store ptr %55, ptr %15, align 8, !tbaa !9
  br label %56

56:                                               ; preds = %47
  br label %57

57:                                               ; preds = %56
  %58 = load i32, ptr %11, align 4, !tbaa !13
  %59 = icmp eq i32 %58, 6
  br i1 %59, label %60, label %111

60:                                               ; preds = %57
  call void @llvm.lifetime.start.p0(i64 8, ptr %19) #9
  %61 = load ptr, ptr %13, align 8, !tbaa !21
  store ptr %61, ptr %19, align 8, !tbaa !40
  call void @llvm.lifetime.start.p0(i64 8, ptr %20) #9
  %62 = load i32, ptr %12, align 4, !tbaa !13
  %63 = call ptr @md_type_to_string(i32 noundef %62)
  store ptr %63, ptr %20, align 8, !tbaa !9
  call void @llvm.lifetime.start.p0(i64 8, ptr %21) #9
  %64 = load ptr, ptr %19, align 8, !tbaa !40
  %65 = getelementptr inbounds nuw %struct.mbedtls_pk_rsassa_pss_options, ptr %64, i32 0, i32 0
  %66 = load i32, ptr %65, align 4, !tbaa !52
  %67 = call ptr @md_type_to_string(i32 noundef %66)
  store ptr %67, ptr %21, align 8, !tbaa !9
  %68 = load ptr, ptr %15, align 8, !tbaa !9
  %69 = load i64, ptr %16, align 8, !tbaa !24
  %70 = load ptr, ptr %20, align 8, !tbaa !9
  %71 = icmp ne ptr %70, null
  br i1 %71, label %72, label %74

72:                                               ; preds = %60
  %73 = load ptr, ptr %20, align 8, !tbaa !9
  br label %75

74:                                               ; preds = %60
  br label %75

75:                                               ; preds = %74, %72
  %76 = phi ptr [ %73, %72 ], [ @.str.14, %74 ]
  %77 = load ptr, ptr %21, align 8, !tbaa !9
  %78 = icmp ne ptr %77, null
  br i1 %78, label %79, label %81

79:                                               ; preds = %75
  %80 = load ptr, ptr %21, align 8, !tbaa !9
  br label %82

81:                                               ; preds = %75
  br label %82

82:                                               ; preds = %81, %79
  %83 = phi ptr [ %80, %79 ], [ @.str.14, %81 ]
  %84 = load ptr, ptr %19, align 8, !tbaa !40
  %85 = getelementptr inbounds nuw %struct.mbedtls_pk_rsassa_pss_options, ptr %84, i32 0, i32 1
  %86 = load i32, ptr %85, align 4, !tbaa !54
  %87 = call i32 (ptr, i64, ptr, ...) @snprintf(ptr noundef %68, i64 noundef %69, ptr noundef @.str.15, ptr noundef %76, ptr noundef %83, i32 noundef %86) #9
  store i32 %87, ptr %14, align 4, !tbaa !13
  br label %88

88:                                               ; preds = %82
  %89 = load i32, ptr %14, align 4, !tbaa !13
  %90 = icmp slt i32 %89, 0
  br i1 %90, label %96, label %91

91:                                               ; preds = %88
  %92 = load i32, ptr %14, align 4, !tbaa !13
  %93 = sext i32 %92 to i64
  %94 = load i64, ptr %16, align 8, !tbaa !24
  %95 = icmp uge i64 %93, %94
  br i1 %95, label %96, label %97

96:                                               ; preds = %91, %88
  store i32 -10624, ptr %7, align 4
  store i32 1, ptr %18, align 4
  br label %108

97:                                               ; preds = %91
  %98 = load i32, ptr %14, align 4, !tbaa !13
  %99 = sext i32 %98 to i64
  %100 = load i64, ptr %16, align 8, !tbaa !24
  %101 = sub i64 %100, %99
  store i64 %101, ptr %16, align 8, !tbaa !24
  %102 = load i32, ptr %14, align 4, !tbaa !13
  %103 = sext i32 %102 to i64
  %104 = load ptr, ptr %15, align 8, !tbaa !9
  %105 = getelementptr inbounds nuw i8, ptr %104, i64 %103
  store ptr %105, ptr %15, align 8, !tbaa !9
  br label %106

106:                                              ; preds = %97
  br label %107

107:                                              ; preds = %106
  store i32 0, ptr %18, align 4
  br label %108

108:                                              ; preds = %107, %96
  call void @llvm.lifetime.end.p0(i64 8, ptr %21) #9
  call void @llvm.lifetime.end.p0(i64 8, ptr %20) #9
  call void @llvm.lifetime.end.p0(i64 8, ptr %19) #9
  %109 = load i32, ptr %18, align 4
  switch i32 %109, label %116 [
    i32 0, label %110
  ]

110:                                              ; preds = %108
  br label %111

111:                                              ; preds = %110, %57
  %112 = load i64, ptr %9, align 8, !tbaa !24
  %113 = load i64, ptr %16, align 8, !tbaa !24
  %114 = sub i64 %112, %113
  %115 = trunc i64 %114 to i32
  store i32 %115, ptr %7, align 4
  store i32 1, ptr %18, align 4
  br label %116

116:                                              ; preds = %111, %108, %46
  call void @llvm.lifetime.end.p0(i64 8, ptr %17) #9
  call void @llvm.lifetime.end.p0(i64 8, ptr %16) #9
  call void @llvm.lifetime.end.p0(i64 8, ptr %15) #9
  call void @llvm.lifetime.end.p0(i64 4, ptr %14) #9
  %117 = load i32, ptr %7, align 4
  ret i32 %117
}